; Function Attrs: mustprogress uwtable
define noundef signext range(i8 88, 91) i8 @_Z8dim2chari(i32 noundef %0) local_unnamed_addr #0 personality ptr @__gxx_personality_v0 {
  %2 = alloca %"class.std::filesystem::__cxx11::path", align 8
  %3 = icmp ult i32 %0, 3
  br i1 %3, label %switch.lookup, label %4

4:                                                ; preds = %1
  call void @llvm.lifetime.start.p0(i64 40, ptr nonnull %2) #15
  call void @_ZNSt10filesystem7__cxx114pathC2IA124_cS1_EERKT_NS1_6formatE(ptr noundef nonnull align 8 dereferenceable(40) %2, ptr noundef nonnull align 1 dereferenceable(124) @.str, i8 noundef zeroext 2)
  invoke void (i32, ptr, i32, ptr, ...) @_Z9gmx_fataliRKNSt10filesystem7__cxx114pathEiPKcz(i32 noundef 0, ptr noundef nonnull align 8 dereferenceable(40) %2, i32 noundef 63, ptr noundef nonnull @.str.1, i32 noundef %0) #16
          to label %5 unwind label %6

5:                                                ; preds = %4
  unreachable

6:                                                ; preds = %4
  %7 = landingpad { ptr, i32 }
          cleanup
  call void @_ZNSt10filesystem7__cxx114pathD2Ev(ptr noundef nonnull align 8 dereferenceable(40) %2) #15
  call void @llvm.lifetime.end.p0(i64 40, ptr nonnull %2) #15
  resume { ptr, i32 } %7

switch.lookup:                                    ; preds = %1
  %switch.idx.cast = trunc nuw i32 %0 to i8
  %switch.offset = or disjoint i8 %switch.idx.cast, 88
  ret i8 %switch.offset
}